target datalayout = "e-m:e-p270:32:32-p271:32:32-p272:64:64-i64:64-i128:128-f80:128-n8:16:32:64-S128"
target triple = "x86_64-pc-linux-gnu"

%struct._ir_insn = type { %struct.anon, %union.anon.6 }
%struct.anon = type { %union.anon.0, %union.anon.5 }
%union.anon.0 = type { i32 }
%union.anon.5 = type { i32 }
%union.anon.6 = type { %union._ir_val }
%union._ir_val = type { double }
%struct._ir_ctx = type { ptr, i32, i32, i32, i32, i32, i32, i32, i32, i32, i32, %struct._ir_insn, ptr, ptr, ptr, i32, i32, i32, ptr, ptr, ptr, ptr, ptr, i32, i32, i64, i32, i32, i32, i64, i32, i32, i32, i32, ptr, ptr, ptr, ptr, ptr, ptr, %union.anon.14, ptr, i32, i32, i32, i64, i32, i32, i32, ptr, ptr, ptr, ptr, %struct._ir_strtab, [61 x i32], [14 x i32] }
%union.anon.14 = type { ptr }
%struct._ir_strtab = type { ptr, i32, i32, i32, i32, ptr, i32, i32 }
%struct._ir_live_interval = type { i8, i8, i16, %union.anon.17, %union.anon.18, i32, %struct._ir_live_range, ptr, ptr, ptr, ptr }
%union.anon.17 = type { i32 }
%union.anon.18 = type { i32 }
%struct._ir_live_range = type { i32, i32, ptr }

; Function Attrs: nounwind uwtable
define internal i64 @ir_vreg_spill_slot(ptr noundef %0, i32 noundef %1) #0 {
  %3 = alloca i8, align 1
  %4 = alloca i32, align 4
  %5 = alloca i8, align 1
  %6 = alloca i32, align 4
  %7 = alloca i64, align 8
  %8 = alloca i8, align 1
  %9 = alloca i32, align 4
  %10 = alloca i8, align 1
  %11 = alloca i32, align 4
  %12 = alloca i64, align 8
  %13 = alloca i64, align 8
  %14 = alloca ptr, align 8
  %15 = alloca i32, align 4
  %16 = alloca i32, align 4
  %17 = alloca i8, align 1
  store ptr %0, ptr %14, align 8
  store i32 %1, ptr %15, align 4
  %18 = load ptr, ptr %14, align 8
  %19 = getelementptr inbounds %struct._ir_ctx, ptr %18, i32 0, i32 34
  %20 = load ptr, ptr %19, align 8
  %21 = load i32, ptr %15, align 4
  %22 = sext i32 %21 to i64
  %23 = getelementptr inbounds ptr, ptr %20, i64 %22
  %24 = load ptr, ptr %23, align 8
  %25 = getelementptr inbounds %struct._ir_live_interval, ptr %24, i32 0, i32 4
  %26 = load i32, ptr %25, align 8
  store i32 %26, ptr %16, align 4
  %27 = load ptr, ptr %14, align 8
  %28 = getelementptr inbounds %struct._ir_ctx, ptr %27, i32 0, i32 34
  %29 = load ptr, ptr %28, align 8
  %30 = load i32, ptr %15, align 4
  %31 = sext i32 %30 to i64
  %32 = getelementptr inbounds ptr, ptr %29, i64 %31
  %33 = load ptr, ptr %32, align 8
  %34 = getelementptr inbounds %struct._ir_live_interval, ptr %33, i32 0, i32 2
  %35 = load i16, ptr %34, align 2
  %36 = zext i16 %35 to i32
  %37 = and i32 %36, 128
  %38 = icmp ne i32 %37, 0
  br i1 %38, label %39, label %61

39:                                               ; preds = %2
  %40 = load ptr, ptr %14, align 8
  %41 = getelementptr inbounds %struct._ir_ctx, ptr %40, i32 0, i32 24
  %42 = load i32, ptr %41, align 4
  %43 = trunc i32 %42 to i8
  %44 = load i32, ptr %16, align 4
  store i8 %43, ptr %3, align 1
  store i32 %44, ptr %4, align 4
  store i8 -1, ptr %5, align 1
  store i32 1, ptr %6, align 4
  %45 = load i32, ptr %4, align 4
  %46 = zext i32 %45 to i64
  %47 = load i8, ptr %3, align 1
  %48 = zext i8 %47 to i64
  %49 = shl i64 %48, 32
  %50 = or i64 %46, %49
  %51 = load i8, ptr %5, align 1
  %52 = zext i8 %51 to i64
  %53 = shl i64 %52, 40
  %54 = or i64 %50, %53
  %55 = load i32, ptr %6, align 4
  %56 = trunc i32 %55 to i8
  %57 = zext i8 %56 to i64
  %58 = shl i64 %57, 48
  %59 = or i64 %54, %58
  store i64 %59, ptr %7, align 8
  %60 = load i64, ptr %7, align 8
  store i64 %60, ptr %13, align 8
  br label %110

61:                                               ; preds = %2
  %62 = load ptr, ptr %14, align 8
  %63 = getelementptr inbounds %struct._ir_ctx, ptr %62, i32 0, i32 5
  %64 = load i32, ptr %63, align 8
  %65 = and i32 %64, 512
  %66 = icmp ne i32 %65, 0
  %67 = select i1 %66, i32 5, i32 4
  %68 = trunc i32 %67 to i8
  store i8 %68, ptr %17, align 1
  %69 = load ptr, ptr %14, align 8
  %70 = getelementptr inbounds %struct._ir_ctx, ptr %69, i32 0, i32 5
  %71 = load i32, ptr %70, align 8
  %72 = and i32 %71, 512
  %73 = icmp ne i32 %72, 0
  br i1 %73, label %74, label %84

74:                                               ; preds = %61
  %75 = load i32, ptr %16, align 4
  %76 = load ptr, ptr %14, align 8
  %77 = getelementptr inbounds %struct._ir_ctx, ptr %76, i32 0, i32 43
  %78 = load i32, ptr %77, align 4
  %79 = load ptr, ptr %14, align 8
  %80 = getelementptr inbounds %struct._ir_ctx, ptr %79, i32 0, i32 42
  %81 = load i32, ptr %80, align 8
  %82 = sub nsw i32 %78, %81
  %83 = sub nsw i32 %75, %82
  br label %90

84:                                               ; preds = %61
  %85 = load i32, ptr %16, align 4
  %86 = load ptr, ptr %14, align 8
  %87 = getelementptr inbounds %struct._ir_ctx, ptr %86, i32 0, i32 44
  %88 = load i32, ptr %87, align 8
  %89 = add nsw i32 %85, %88
  br label %90

90:                                               ; preds = %84, %74
  %91 = phi i32 [ %83, %74 ], [ %89, %84 ]
  store i32 %91, ptr %16, align 4
  %92 = load i8, ptr %17, align 1
  %93 = load i32, ptr %16, align 4
  store i8 %92, ptr %8, align 1
  store i32 %93, ptr %9, align 4
  store i8 -1, ptr %10, align 1
  store i32 1, ptr %11, align 4
  %94 = load i32, ptr %9, align 4
  %95 = zext i32 %94 to i64
  %96 = load i8, ptr %8, align 1
  %97 = zext i8 %96 to i64
  %98 = shl i64 %97, 32
  %99 = or i64 %95, %98
  %100 = load i8, ptr %10, align 1
  %101 = zext i8 %100 to i64
  %102 = shl i64 %101, 40
  %103 = or i64 %99, %102
  %104 = load i32, ptr %11, align 4
  %105 = trunc i32 %104 to i8
  %106 = zext i8 %105 to i64
  %107 = shl i64 %106, 48
  %108 = or i64 %103, %107
  store i64 %108, ptr %12, align 8
  %109 = load i64, ptr %12, align 8
  store i64 %109, ptr %13, align 8
  br label %110

110:                                              ; preds = %90, %39
  %111 = load i64, ptr %13, align 8
  ret i64 %111
}

; Function Attrs: nounwind uwtable
define internal void @ir_emit_store_mem(ptr noundef %0, i32 noundef %1, i64 noundef %2, i8 noundef signext %3) #0 {
  %5 = alloca ptr, align 8
  %6 = alloca i32, align 4
  %7 = alloca i64, align 8
  %8 = alloca i8, align 1
  store ptr %0, ptr %5, align 8
  store i32 %1, ptr %6, align 4
  store i64 %2, ptr %7, align 8
  store i8 %3, ptr %8, align 1
  %9 = load i32, ptr %6, align 4
  %10 = icmp ult i32 %9, 12
  br i1 %10, label %11, label %16

11:                                               ; preds = %4
  %12 = load ptr, ptr %5, align 8
  %13 = load i32, ptr %6, align 4
  %14 = load i64, ptr %7, align 8
  %15 = load i8, ptr %8, align 1
  call void @ir_emit_store_mem_int(ptr noundef %12, i32 noundef %13, i64 noundef %14, i8 noundef signext %15)
  br label %21

16:                                               ; preds = %4
  %17 = load ptr, ptr %5, align 8
  %18 = load i32, ptr %6, align 4
  %19 = load i64, ptr %7, align 8
  %20 = load i8, ptr %8, align 1
  call void @ir_emit_store_mem_fp(ptr noundef %17, i32 noundef %18, i64 noundef %19, i8 noundef signext %20)
  br label %21

21:                                               ; preds = %16, %11
  ret void
}

; Function Attrs: nounwind uwtable
define internal i64 @ir_ref_spill_slot(ptr noundef %0, i32 noundef %1) #0 {
  %3 = alloca ptr, align 8
  %4 = alloca i32, align 4
  store ptr %0, ptr %3, align 8
  store i32 %1, ptr %4, align 4
  %5 = load ptr, ptr %3, align 8
  %6 = load ptr, ptr %3, align 8
  %7 = getelementptr inbounds %struct._ir_ctx, ptr %6, i32 0, i32 22
  %8 = load ptr, ptr %7, align 8
  %9 = load i32, ptr %4, align 4
  %10 = sext i32 %9 to i64
  %11 = getelementptr inbounds i32, ptr %8, i64 %10
  %12 = load i32, ptr %11, align 4
  %13 = call i64 @ir_vreg_spill_slot(ptr noundef %5, i32 noundef %12)
  ret i64 %13
}

; Function Attrs: nounwind uwtable
define internal void @ir_emit_store(ptr noundef %0, i32 noundef %1, i32 noundef %2, i8 noundef signext %3) #0 {
  %5 = alloca ptr, align 8
  %6 = alloca i32, align 4
  %7 = alloca i32, align 4
  %8 = alloca i8, align 1
  store ptr %0, ptr %5, align 8
  store i32 %1, ptr %6, align 4
  store i32 %2, ptr %7, align 4
  store i8 %3, ptr %8, align 1
  %9 = load ptr, ptr %5, align 8
  %10 = load i32, ptr %6, align 4
  %11 = load ptr, ptr %5, align 8
  %12 = load i32, ptr %7, align 4
  %13 = call i64 @ir_ref_spill_slot(ptr noundef %11, i32 noundef %12)
  %14 = load i8, ptr %8, align 1
  call void @ir_emit_store_mem(ptr noundef %9, i32 noundef %10, i64 noundef %13, i8 noundef signext %14)
  ret void
}