; Function Attrs: nounwind uwtable
define internal fastcc void @ir_emit_store(ptr nocapture noundef readonly %0, i32 noundef %1, i32 noundef %2, i8 noundef signext %3) unnamed_addr #1 {
  %5 = getelementptr inbounds i8, ptr %0, i64 136
  %6 = load ptr, ptr %5, align 8
  %7 = sext i32 %2 to i64
  %8 = getelementptr inbounds i32, ptr %6, i64 %7
  %9 = load i32, ptr %8, align 4
  %10 = getelementptr inbounds i8, ptr %0, i64 200
  %11 = load ptr, ptr %10, align 8
  %12 = sext i32 %9 to i64
  %13 = getelementptr inbounds ptr, ptr %11, i64 %12
  %14 = load ptr, ptr %13, align 8
  %15 = getelementptr inbounds i8, ptr %14, i64 8
  %16 = load i32, ptr %15, align 8
  %17 = getelementptr inbounds i8, ptr %14, i64 2
  %18 = load i16, ptr %17, align 2
  %19 = and i16 %18, 128
  %.not.i.i = icmp eq i16 %19, 0
  br i1 %.not.i.i, label %28, label %20

20:                                               ; preds = %4
  %21 = getelementptr inbounds i8, ptr %0, i64 148
  %22 = load i32, ptr %21, align 4
  %23 = zext i32 %16 to i64
  %24 = and i32 %22, 255
  %25 = zext nneg i32 %24 to i64
  %26 = shl nuw nsw i64 %25, 32
  %27 = or disjoint i64 %26, %23
  br label %ir_ref_spill_slot.exit

28:                                               ; preds = %4
  %29 = getelementptr inbounds i8, ptr %0, i64 24
  %30 = load i32, ptr %29, align 8
  %31 = and i32 %30, 512
  %.not25.i.i = icmp eq i32 %31, 0
  br i1 %.not25.i.i, label %38, label %32

32:                                               ; preds = %28
  %33 = getelementptr inbounds i8, ptr %0, i64 268
  %34 = load i32, ptr %33, align 4
  %35 = getelementptr inbounds i8, ptr %0, i64 264
  %36 = load i32, ptr %35, align 8
  %.neg.i.i = sub i32 %16, %34
  %37 = add i32 %.neg.i.i, %36
  br label %42

38:                                               ; preds = %28
  %39 = getelementptr inbounds i8, ptr %0, i64 272
  %40 = load i32, ptr %39, align 8
  %41 = add nsw i32 %40, %16
  br label %42

42:                                               ; preds = %38, %32
  %43 = phi i64 [ 21474836480, %32 ], [ 17179869184, %38 ]
  %44 = phi i32 [ %37, %32 ], [ %41, %38 ]
  %45 = zext i32 %44 to i64
  %46 = or disjoint i64 %43, %45
  br label %ir_ref_spill_slot.exit

ir_ref_spill_slot.exit:                           ; preds = %20, %42
  %.0.in.i.i = phi i64 [ %27, %20 ], [ %46, %42 ]
  %.0.i.i = or disjoint i64 %.0.in.i.i, 561850441793536
  %47 = icmp ult i32 %1, 12
  br i1 %47, label %48, label %50

48:                                               ; preds = %ir_ref_spill_slot.exit
  %49 = getelementptr i8, ptr %0, i64 248
  %.val.i = load ptr, ptr %49, align 8
  tail call fastcc void @ir_emit_store_mem_int(ptr %.val.i, i32 noundef %1, i64 noundef %.0.i.i, i8 noundef signext %3)
  br label %ir_emit_store_mem.exit

50:                                               ; preds = %ir_ref_spill_slot.exit
  tail call fastcc void @ir_emit_store_mem_fp(ptr noundef nonnull %0, i32 noundef %1, i64 noundef %.0.i.i, i8 noundef signext %3)
  br label %ir_emit_store_mem.exit

ir_emit_store_mem.exit:                           ; preds = %48, %50
  ret void
}